; Function Attrs: mustprogress uwtable
define internal fastcc noundef range(i64 -119, 1) i64 @_ZN11duckdb_zstdL22ZSTD_decodeFrameHeaderEPNS_11ZSTD_DCtx_sEPKvm(ptr noundef %0, ptr noundef captures(address_is_null) %1, i64 noundef %2) unnamed_addr #0 {
  %4 = alloca i32, align 4
  %5 = getelementptr inbounds nuw i8, ptr %0, i64 29928
  %6 = getelementptr inbounds nuw i8, ptr %0, i64 30104
  %7 = load i32, ptr %6, align 8, !tbaa !42
  %8 = tail call noundef i64 @_ZN11duckdb_zstd28ZSTD_getFrameHeader_advancedEPNS_16ZSTD_frameHeaderEPKvmNS_13ZSTD_format_eE(ptr noundef nonnull %5, ptr noundef %1, i64 noundef %2, i32 noundef %7)
  %9 = icmp ult i64 %8, -119
  br i1 %9, label %10, label %69

10:                                               ; preds = %3
  %.not21 = icmp eq i64 %8, 0
  br i1 %.not21, label %11, label %69

11:                                               ; preds = %10
  %12 = getelementptr inbounds nuw i8, ptr %0, i64 30224
  %13 = load i32, ptr %12, align 8, !tbaa !46
  %14 = icmp eq i32 %13, 1
  br i1 %14, label %15, label %_ZN11duckdb_zstdL26ZSTD_DCtx_selectFrameDDictEPNS_11ZSTD_DCtx_sE.exit

15:                                               ; preds = %11
  %16 = getelementptr inbounds nuw i8, ptr %0, i64 30216
  %17 = load ptr, ptr %16, align 8, !tbaa !41
  %.not22 = icmp eq ptr %17, null
  br i1 %.not22, label %_ZN11duckdb_zstdL26ZSTD_DCtx_selectFrameDDictEPNS_11ZSTD_DCtx_sE.exit, label %18

18:                                               ; preds = %15
  %19 = getelementptr inbounds nuw i8, ptr %0, i64 30192
  %20 = load ptr, ptr %19, align 8, !tbaa !111
  %.not.i = icmp eq ptr %20, null
  br i1 %.not.i, label %_ZN11duckdb_zstdL26ZSTD_DCtx_selectFrameDDictEPNS_11ZSTD_DCtx_sE.exit, label %21

21:                                               ; preds = %18
  %22 = getelementptr inbounds nuw i8, ptr %0, i64 29956
  %23 = load i32, ptr %22, align 4, !tbaa !123
  call void @llvm.lifetime.start.p0(i64 4, ptr nonnull %4)
  store i32 %23, ptr %4, align 4, !tbaa !55
  %24 = call noundef i64 @_ZN11duckdb_zstd5XXH64EPKvmy(ptr noundef nonnull %4, i64 noundef 4, i64 noundef 0)
  %25 = getelementptr inbounds nuw i8, ptr %17, i64 8
  %26 = load i64, ptr %25, align 8, !tbaa !124
  %27 = add i64 %26, -1
  %28 = and i64 %27, %24
  call void @llvm.lifetime.end.p0(i64 4, ptr nonnull %4)
  br label %29

29:                                               ; preds = %29, %21
  %.014.i.i = phi i64 [ %28, %21 ], [ %37, %29 ]
  %30 = load ptr, ptr %17, align 8, !tbaa !52
  %31 = getelementptr inbounds nuw ptr, ptr %30, i64 %.014.i.i
  %32 = load ptr, ptr %31, align 8, !tbaa !125
  %33 = call noundef i32 @_ZN11duckdb_zstd24ZSTD_getDictID_fromDDictEPKNS_12ZSTD_DDict_sE(ptr noundef %32)
  %34 = icmp eq i32 %33, %23
  %35 = icmp eq i32 %33, 0
  %or.cond.i.i = or i1 %34, %35
  %36 = and i64 %.014.i.i, %27
  %37 = add i64 %36, 1
  br i1 %or.cond.i.i, label %_ZN11duckdb_zstdL26ZSTD_DDictHashSet_getDDictEPNS_17ZSTD_DDictHashSetEj.exit.i, label %29

_ZN11duckdb_zstdL26ZSTD_DDictHashSet_getDDictEPNS_17ZSTD_DDictHashSetEj.exit.i: ; preds = %29
  %38 = load ptr, ptr %17, align 8, !tbaa !52
  %39 = getelementptr inbounds nuw ptr, ptr %38, i64 %.014.i.i
  %40 = load ptr, ptr %39, align 8, !tbaa !125
  %.not10.i = icmp eq ptr %40, null
  br i1 %.not10.i, label %_ZN11duckdb_zstdL26ZSTD_DCtx_selectFrameDDictEPNS_11ZSTD_DCtx_sE.exit, label %41

41:                                               ; preds = %_ZN11duckdb_zstdL26ZSTD_DDictHashSet_getDDictEPNS_17ZSTD_DDictHashSetEj.exit.i
  %42 = getelementptr inbounds nuw i8, ptr %0, i64 30184
  %43 = load ptr, ptr %42, align 8, !tbaa !3
  %44 = call noundef i64 @_ZN11duckdb_zstd14ZSTD_freeDDictEPNS_12ZSTD_DDict_sE(ptr noundef %43)
  %45 = getelementptr inbounds nuw i8, ptr %0, i64 30208
  store i64 0, ptr %42, align 8
  %46 = load i32, ptr %22, align 4, !tbaa !123
  %47 = getelementptr inbounds nuw i8, ptr %0, i64 30200
  store i32 %46, ptr %47, align 8, !tbaa !93
  store ptr %40, ptr %19, align 8, !tbaa !111
  store i32 -1, ptr %45, align 8, !tbaa !33
  br label %_ZN11duckdb_zstdL26ZSTD_DCtx_selectFrameDDictEPNS_11ZSTD_DCtx_sE.exit

_ZN11duckdb_zstdL26ZSTD_DCtx_selectFrameDDictEPNS_11ZSTD_DCtx_sE.exit: ; preds = %41, %_ZN11duckdb_zstdL26ZSTD_DDictHashSet_getDDictEPNS_17ZSTD_DDictHashSetEj.exit.i, %18, %11, %15
  %48 = getelementptr inbounds nuw i8, ptr %0, i64 29956
  %49 = load i32, ptr %48, align 4, !tbaa !123
  %.not23 = icmp eq i32 %49, 0
  br i1 %.not23, label %53, label %50

50:                                               ; preds = %_ZN11duckdb_zstdL26ZSTD_DCtx_selectFrameDDictEPNS_11ZSTD_DCtx_sE.exit
  %51 = getelementptr inbounds nuw i8, ptr %0, i64 30200
  %52 = load i32, ptr %51, align 8, !tbaa !93
  %.not24 = icmp eq i32 %52, %49
  br i1 %.not24, label %53, label %69

53:                                               ; preds = %50, %_ZN11duckdb_zstdL26ZSTD_DCtx_selectFrameDDictEPNS_11ZSTD_DCtx_sE.exit
  %54 = getelementptr inbounds nuw i8, ptr %0, i64 29960
  %55 = load i32, ptr %54, align 8, !tbaa !104
  %.not25 = icmp eq i32 %55, 0
  br i1 %.not25, label %.critedge, label %56

56:                                               ; preds = %53
  %57 = getelementptr inbounds nuw i8, ptr %0, i64 30108
  %58 = load i32, ptr %57, align 4, !tbaa !45
  %.not26 = icmp eq i32 %58, 0
  %59 = zext i1 %.not26 to i32
  %60 = getelementptr inbounds nuw i8, ptr %0, i64 30112
  store i32 %59, ptr %60, align 8, !tbaa !102
  br i1 %.not26, label %61, label %65

61:                                               ; preds = %56
  %62 = getelementptr inbounds nuw i8, ptr %0, i64 30008
  %63 = call noundef i32 @_ZN11duckdb_zstd11XXH64_resetEPNS_13XXH64_state_sEy(ptr noundef nonnull %62, i64 noundef 0)
  br label %65

.critedge:                                        ; preds = %53
  %64 = getelementptr inbounds nuw i8, ptr %0, i64 30112
  store i32 0, ptr %64, align 8, !tbaa !102
  br label %65

65:                                               ; preds = %.critedge, %61, %56
  %66 = getelementptr inbounds nuw i8, ptr %0, i64 29976
  %67 = load i64, ptr %66, align 8, !tbaa !119
  %68 = add i64 %67, %2
  store i64 %68, ptr %66, align 8, !tbaa !119
  br label %69

69:                                               ; preds = %50, %10, %3, %65
  %.0 = phi i64 [ 0, %65 ], [ %8, %3 ], [ -72, %10 ], [ -32, %50 ]
  ret i64 %.0
}